target datalayout = "e-m:e-p270:32:32-p271:32:32-p272:64:64-i64:64-i128:128-f80:128-n8:16:32:64-S128"
target triple = "x86_64-pc-linux-gnu"

%struct.MvcCubeStruct = type { ptr, i32, i32, [1 x i32] }
%struct.MvcCoverStruct = type { i32, i32, i32, %struct.MvcListStruct, ptr, i32, ptr, ptr, ptr }
%struct.MvcListStruct = type { ptr, ptr, i32 }

; Function Attrs: nounwind uwtable
define i32 @Mvc_CoverCountCubePairDiffs(ptr noundef %0, ptr noundef %1) #0 {
  %3 = alloca ptr, align 8
  %4 = alloca ptr, align 8
  %5 = alloca ptr, align 8
  %6 = alloca ptr, align 8
  %7 = alloca ptr, align 8
  %8 = alloca ptr, align 8
  %9 = alloca ptr, align 8
  %10 = alloca ptr, align 8
  %11 = alloca i32, align 4
  %12 = alloca i32, align 4
  %13 = alloca i32, align 4
  %14 = alloca i32, align 4
  store ptr %0, ptr %3, align 8, !tbaa !3
  store ptr %1, ptr %4, align 8, !tbaa !43
  call void @llvm.lifetime.start.p0(i64 8, ptr %5) #3
  call void @llvm.lifetime.start.p0(i64 8, ptr %6) #3
  call void @llvm.lifetime.start.p0(i64 8, ptr %7) #3
  call void @llvm.lifetime.start.p0(i64 8, ptr %8) #3
  call void @llvm.lifetime.start.p0(i64 8, ptr %9) #3
  call void @llvm.lifetime.start.p0(i64 8, ptr %10) #3
  call void @llvm.lifetime.start.p0(i64 4, ptr %11) #3
  call void @llvm.lifetime.start.p0(i64 4, ptr %12) #3
  call void @llvm.lifetime.start.p0(i64 4, ptr %13) #3
  %15 = load ptr, ptr %3, align 8, !tbaa !3
  %16 = call ptr @Mvc_CubeAlloc(ptr noundef %15)
  store ptr %16, ptr %7, align 8, !tbaa !8
  %17 = load ptr, ptr %3, align 8, !tbaa !3
  %18 = getelementptr inbounds nuw %struct.MvcCoverStruct, ptr %17, i32 0, i32 0
  %19 = load i32, ptr %18, align 8, !tbaa !42
  %20 = sext i32 %19 to i64
  %21 = mul i64 4, %20
  %22 = trunc i64 %21 to i32
  store i32 %22, ptr %11, align 4, !tbaa !10
  store i32 0, ptr %13, align 4, !tbaa !10
  %23 = load ptr, ptr %3, align 8, !tbaa !3
  %24 = getelementptr inbounds nuw %struct.MvcCoverStruct, ptr %23, i32 0, i32 3
  %25 = getelementptr inbounds nuw %struct.MvcListStruct, ptr %24, i32 0, i32 0
  %26 = load ptr, ptr %25, align 8, !tbaa !14
  store ptr %26, ptr %5, align 8, !tbaa !8
  br label %27

27:                                               ; preds = %156, %2
  %28 = load ptr, ptr %5, align 8, !tbaa !8
  %29 = icmp ne ptr %28, null
  br i1 %29, label %30, label %160

30:                                               ; preds = %27
  %31 = load ptr, ptr %5, align 8, !tbaa !8
  %32 = getelementptr inbounds nuw %struct.MvcCubeStruct, ptr %31, i32 0, i32 0
  %33 = load ptr, ptr %32, align 8, !tbaa !21
  store ptr %33, ptr %6, align 8, !tbaa !8
  br label %34

34:                                               ; preds = %151, %30
  %35 = load ptr, ptr %6, align 8, !tbaa !8
  %36 = icmp ne ptr %35, null
  br i1 %36, label %37, label %155

37:                                               ; preds = %34
  %38 = load ptr, ptr %5, align 8, !tbaa !8
  %39 = getelementptr inbounds nuw %struct.MvcCubeStruct, ptr %38, i32 0, i32 1
  %40 = load i32, ptr %39, align 8
  %41 = and i32 %40, 16777215
  %42 = icmp eq i32 %41, 0
  br i1 %42, label %43, label %56

43:                                               ; preds = %37
  %44 = load ptr, ptr %5, align 8, !tbaa !8
  %45 = getelementptr inbounds nuw %struct.MvcCubeStruct, ptr %44, i32 0, i32 3
  %46 = getelementptr inbounds [1 x i32], ptr %45, i64 0, i64 0
  %47 = load i32, ptr %46, align 8, !tbaa !10
  %48 = load ptr, ptr %6, align 8, !tbaa !8
  %49 = getelementptr inbounds nuw %struct.MvcCubeStruct, ptr %48, i32 0, i32 3
  %50 = getelementptr inbounds [1 x i32], ptr %49, i64 0, i64 0
  %51 = load i32, ptr %50, align 8, !tbaa !10
  %52 = xor i32 %47, %51
  %53 = load ptr, ptr %7, align 8, !tbaa !8
  %54 = getelementptr inbounds nuw %struct.MvcCubeStruct, ptr %53, i32 0, i32 3
  %55 = getelementptr inbounds [1 x i32], ptr %54, i64 0, i64 0
  store i32 %52, ptr %55, align 8, !tbaa !10
  br label %119

56:                                               ; preds = %37
  %57 = load ptr, ptr %5, align 8, !tbaa !8
  %58 = getelementptr inbounds nuw %struct.MvcCubeStruct, ptr %57, i32 0, i32 1
  %59 = load i32, ptr %58, align 8
  %60 = and i32 %59, 16777215
  %61 = icmp eq i32 %60, 1
  br i1 %61, label %62, label %87

62:                                               ; preds = %56
  %63 = load ptr, ptr %5, align 8, !tbaa !8
  %64 = getelementptr inbounds nuw %struct.MvcCubeStruct, ptr %63, i32 0, i32 3
  %65 = getelementptr inbounds [1 x i32], ptr %64, i64 0, i64 0
  %66 = load i32, ptr %65, align 8, !tbaa !10
  %67 = load ptr, ptr %6, align 8, !tbaa !8
  %68 = getelementptr inbounds nuw %struct.MvcCubeStruct, ptr %67, i32 0, i32 3
  %69 = getelementptr inbounds [1 x i32], ptr %68, i64 0, i64 0
  %70 = load i32, ptr %69, align 8, !tbaa !10
  %71 = xor i32 %66, %70
  %72 = load ptr, ptr %7, align 8, !tbaa !8
  %73 = getelementptr inbounds nuw %struct.MvcCubeStruct, ptr %72, i32 0, i32 3
  %74 = getelementptr inbounds [1 x i32], ptr %73, i64 0, i64 0
  store i32 %71, ptr %74, align 8, !tbaa !10
  %75 = load ptr, ptr %5, align 8, !tbaa !8
  %76 = getelementptr inbounds nuw %struct.MvcCubeStruct, ptr %75, i32 0, i32 3
  %77 = getelementptr inbounds [1 x i32], ptr %76, i64 0, i64 1
  %78 = load i32, ptr %77, align 4, !tbaa !10
  %79 = load ptr, ptr %6, align 8, !tbaa !8
  %80 = getelementptr inbounds nuw %struct.MvcCubeStruct, ptr %79, i32 0, i32 3
  %81 = getelementptr inbounds [1 x i32], ptr %80, i64 0, i64 1
  %82 = load i32, ptr %81, align 4, !tbaa !10
  %83 = xor i32 %78, %82
  %84 = load ptr, ptr %7, align 8, !tbaa !8
  %85 = getelementptr inbounds nuw %struct.MvcCubeStruct, ptr %84, i32 0, i32 3
  %86 = getelementptr inbounds [1 x i32], ptr %85, i64 0, i64 1
  store i32 %83, ptr %86, align 4, !tbaa !10
  br label %118

87:                                               ; preds = %56
  call void @llvm.lifetime.start.p0(i64 4, ptr %14) #3
  %88 = load ptr, ptr %5, align 8, !tbaa !8
  %89 = getelementptr inbounds nuw %struct.MvcCubeStruct, ptr %88, i32 0, i32 1
  %90 = load i32, ptr %89, align 8
  %91 = and i32 %90, 16777215
  store i32 %91, ptr %14, align 4, !tbaa !10
  br label %92

92:                                               ; preds = %114, %87
  %93 = load i32, ptr %14, align 4, !tbaa !10
  %94 = icmp sge i32 %93, 0
  br i1 %94, label %95, label %117

95:                                               ; preds = %92
  %96 = load ptr, ptr %5, align 8, !tbaa !8
  %97 = getelementptr inbounds nuw %struct.MvcCubeStruct, ptr %96, i32 0, i32 3
  %98 = load i32, ptr %14, align 4, !tbaa !10
  %99 = sext i32 %98 to i64
  %100 = getelementptr inbounds [1 x i32], ptr %97, i64 0, i64 %99
  %101 = load i32, ptr %100, align 4, !tbaa !10
  %102 = load ptr, ptr %6, align 8, !tbaa !8
  %103 = getelementptr inbounds nuw %struct.MvcCubeStruct, ptr %102, i32 0, i32 3
  %104 = load i32, ptr %14, align 4, !tbaa !10
  %105 = sext i32 %104 to i64
  %106 = getelementptr inbounds [1 x i32], ptr %103, i64 0, i64 %105
  %107 = load i32, ptr %106, align 4, !tbaa !10
  %108 = xor i32 %101, %107
  %109 = load ptr, ptr %7, align 8, !tbaa !8
  %110 = getelementptr inbounds nuw %struct.MvcCubeStruct, ptr %109, i32 0, i32 3
  %111 = load i32, ptr %14, align 4, !tbaa !10
  %112 = sext i32 %111 to i64
  %113 = getelementptr inbounds [1 x i32], ptr %110, i64 0, i64 %112
  store i32 %108, ptr %113, align 4, !tbaa !10
  br label %114

114:                                              ; preds = %95
  %115 = load i32, ptr %14, align 4, !tbaa !10
  %116 = add nsw i32 %115, -1
  store i32 %116, ptr %14, align 4, !tbaa !10
  br label %92, !llvm.loop !49

117:                                              ; preds = %92
  call void @llvm.lifetime.end.p0(i64 4, ptr %14) #3
  br label %118

118:                                              ; preds = %117, %62
  br label %119

119:                                              ; preds = %118, %43
  %120 = load ptr, ptr %7, align 8, !tbaa !8
  %121 = getelementptr inbounds nuw %struct.MvcCubeStruct, ptr %120, i32 0, i32 3
  %122 = getelementptr inbounds [1 x i32], ptr %121, i64 0, i64 0
  store ptr %122, ptr %9, align 8, !tbaa !43
  %123 = load ptr, ptr %9, align 8, !tbaa !43
  %124 = load i32, ptr %11, align 4, !tbaa !10
  %125 = sext i32 %124 to i64
  %126 = getelementptr inbounds i8, ptr %123, i64 %125
  store ptr %126, ptr %10, align 8, !tbaa !43
  store i32 0, ptr %12, align 4, !tbaa !10
  %127 = load ptr, ptr %9, align 8, !tbaa !43
  store ptr %127, ptr %8, align 8, !tbaa !43
  br label %128

128:                                              ; preds = %140, %119
  %129 = load ptr, ptr %8, align 8, !tbaa !43
  %130 = load ptr, ptr %10, align 8, !tbaa !43
  %131 = icmp ult ptr %129, %130
  br i1 %131, label %132, label %143

132:                                              ; preds = %128
  %133 = load ptr, ptr %8, align 8, !tbaa !43
  %134 = load i8, ptr %133, align 1, !tbaa !45
  %135 = zext i8 %134 to i64
  %136 = getelementptr inbounds nuw [256 x i32], ptr @bit_count, i64 0, i64 %135
  %137 = load i32, ptr %136, align 4, !tbaa !10
  %138 = load i32, ptr %12, align 4, !tbaa !10
  %139 = add nsw i32 %138, %137
  store i32 %139, ptr %12, align 4, !tbaa !10
  br label %140

140:                                              ; preds = %132
  %141 = load ptr, ptr %8, align 8, !tbaa !43
  %142 = getelementptr inbounds nuw i8, ptr %141, i32 1
  store ptr %142, ptr %8, align 8, !tbaa !43
  br label %128, !llvm.loop !50

143:                                              ; preds = %128
  %144 = load i32, ptr %12, align 4, !tbaa !10
  %145 = trunc i32 %144 to i8
  %146 = load ptr, ptr %4, align 8, !tbaa !43
  %147 = load i32, ptr %13, align 4, !tbaa !10
  %148 = add nsw i32 %147, 1
  store i32 %148, ptr %13, align 4, !tbaa !10
  %149 = sext i32 %147 to i64
  %150 = getelementptr inbounds i8, ptr %146, i64 %149
  store i8 %145, ptr %150, align 1, !tbaa !45
  br label %151

151:                                              ; preds = %143
  %152 = load ptr, ptr %6, align 8, !tbaa !8
  %153 = getelementptr inbounds nuw %struct.MvcCubeStruct, ptr %152, i32 0, i32 0
  %154 = load ptr, ptr %153, align 8, !tbaa !21
  store ptr %154, ptr %6, align 8, !tbaa !8
  br label %34, !llvm.loop !51

155:                                              ; preds = %34
  br label %156

156:                                              ; preds = %155
  %157 = load ptr, ptr %5, align 8, !tbaa !8
  %158 = getelementptr inbounds nuw %struct.MvcCubeStruct, ptr %157, i32 0, i32 0
  %159 = load ptr, ptr %158, align 8, !tbaa !21
  store ptr %159, ptr %5, align 8, !tbaa !8
  br label %27, !llvm.loop !52

160:                                              ; preds = %27
  %161 = load ptr, ptr %3, align 8, !tbaa !3
  %162 = load ptr, ptr %7, align 8, !tbaa !8
  call void @Mvc_CubeFree(ptr noundef %161, ptr noundef %162)
  call void @llvm.lifetime.end.p0(i64 4, ptr %13) #3
  call void @llvm.lifetime.end.p0(i64 4, ptr %12) #3
  call void @llvm.lifetime.end.p0(i64 4, ptr %11) #3
  call void @llvm.lifetime.end.p0(i64 8, ptr %10) #3
  call void @llvm.lifetime.end.p0(i64 8, ptr %9) #3
  call void @llvm.lifetime.end.p0(i64 8, ptr %8) #3
  call void @llvm.lifetime.end.p0(i64 8, ptr %7) #3
  call void @llvm.lifetime.end.p0(i64 8, ptr %6) #3
  call void @llvm.lifetime.end.p0(i64 8, ptr %5) #3
  ret i32 1
}