; Function Attrs: nounwind uwtable
define noundef i32 @Mvc_CoverCountCubePairDiffs(ptr noundef %0, ptr noundef writeonly captures(none) %1) local_unnamed_addr #1 {
  %3 = tail call ptr @Mvc_CubeAlloc(ptr noundef %0) #6
  %4 = getelementptr inbounds nuw i8, ptr %0, i64 16
  %.04359 = load ptr, ptr %4, align 8, !tbaa !7
  %.not60 = icmp eq ptr %.04359, null
  br i1 %.not60, label %._crit_edge, label %.preheader48.lr.ph

.preheader48.lr.ph:                               ; preds = %2
  %5 = load i32, ptr %0, align 8, !tbaa !34
  %.fr = freeze i32 %5
  %6 = shl i32 %.fr, 2
  %7 = getelementptr inbounds nuw i8, ptr %3, i64 16
  %8 = getelementptr inbounds nuw i8, ptr %3, i64 20
  %9 = sext i32 %6 to i64
  %10 = getelementptr i8, ptr %3, i64 %9
  %.ptr63 = getelementptr i8, ptr %10, i64 16
  %11 = icmp sgt i32 %6, 0
  br i1 %11, label %.preheader48.us, label %.preheader48

.preheader48.us:                                  ; preds = %.preheader48.lr.ph, %.loopexit49.us
  %.04362.us = phi ptr [ %.043.us.pre, %.loopexit49.us ], [ %.04359, %.preheader48.lr.ph ]
  %.04161.us = phi i64 [ %indvars.iv.next76, %.loopexit49.us ], [ 0, %.preheader48.lr.ph ]
  %.04453.us = load ptr, ptr %.04362.us, align 8, !tbaa !30
  %.not4754.us = icmp eq ptr %.04453.us, null
  br i1 %.not4754.us, label %._crit_edge, label %.lr.ph57.us

.loopexit49.us:                                   ; preds = %._crit_edge.us.us
  %.043.us.pre = load ptr, ptr %.04362.us, align 8, !tbaa !7
  %.not.us = icmp eq ptr %.043.us.pre, null
  br i1 %.not.us, label %._crit_edge, label %.preheader48.us, !llvm.loop !39

.lr.ph57.us:                                      ; preds = %.preheader48.us
  %12 = getelementptr inbounds nuw i8, ptr %.04362.us, i64 8
  %13 = getelementptr inbounds nuw i8, ptr %.04362.us, i64 16
  %14 = getelementptr inbounds nuw i8, ptr %.04362.us, i64 20
  %sext88 = shl i64 %.04161.us, 32
  %15 = ashr exact i64 %sext88, 32
  br label %16

16:                                               ; preds = %._crit_edge.us.us, %.lr.ph57.us
  %indvars.iv75 = phi i64 [ %indvars.iv.next76, %._crit_edge.us.us ], [ %15, %.lr.ph57.us ]
  %.04456.us.us = phi ptr [ %.044.us.us, %._crit_edge.us.us ], [ %.04453.us, %.lr.ph57.us ]
  %17 = load i32, ptr %12, align 8
  %18 = and i32 %17, 16777215
  switch i32 %18, label %.preheader.us.us [
    i32 0, label %28
    i32 1, label %19
  ]

19:                                               ; preds = %16
  %20 = load i32, ptr %13, align 8, !tbaa !3
  %21 = getelementptr inbounds nuw i8, ptr %.04456.us.us, i64 16
  %22 = load i32, ptr %21, align 8, !tbaa !3
  %23 = xor i32 %22, %20
  store i32 %23, ptr %7, align 8, !tbaa !3
  %24 = load i32, ptr %14, align 4, !tbaa !3
  %25 = getelementptr inbounds nuw i8, ptr %.04456.us.us, i64 20
  %26 = load i32, ptr %25, align 4, !tbaa !3
  %27 = xor i32 %26, %24
  store i32 %27, ptr %8, align 4, !tbaa !3
  br label %.lr.ph.us.us.preheader

28:                                               ; preds = %16
  %29 = load i32, ptr %13, align 8, !tbaa !3
  %30 = getelementptr inbounds nuw i8, ptr %.04456.us.us, i64 16
  %31 = load i32, ptr %30, align 8, !tbaa !3
  %32 = xor i32 %31, %29
  store i32 %32, ptr %7, align 8, !tbaa !3
  br label %.lr.ph.us.us.preheader

.lr.ph.us.us.preheader:                           ; preds = %40, %28, %19
  br label %.lr.ph.us.us

.lr.ph.us.us:                                     ; preds = %.lr.ph.us.us.preheader, %.lr.ph.us.us
  %.04252.us.us = phi i32 [ %37, %.lr.ph.us.us ], [ 0, %.lr.ph.us.us.preheader ]
  %.04551.us.us = phi ptr [ %38, %.lr.ph.us.us ], [ %7, %.lr.ph.us.us.preheader ]
  %33 = load i8, ptr %.04551.us.us, align 1, !tbaa !35
  %34 = zext i8 %33 to i64
  %35 = getelementptr inbounds nuw [256 x i32], ptr @bit_count, i64 0, i64 %34
  %36 = load i32, ptr %35, align 4, !tbaa !3
  %37 = add nsw i32 %36, %.04252.us.us
  %38 = getelementptr inbounds nuw i8, ptr %.04551.us.us, i64 1
  %39 = icmp ult ptr %38, %.ptr63
  br i1 %39, label %.lr.ph.us.us, label %._crit_edge.us.us, !llvm.loop !40

40:                                               ; preds = %.preheader.us.us, %40
  %indvars.iv72 = phi i64 [ %49, %.preheader.us.us ], [ %indvars.iv.next73, %40 ]
  %41 = getelementptr inbounds nuw [1 x i32], ptr %13, i64 0, i64 %indvars.iv72
  %42 = load i32, ptr %41, align 4, !tbaa !3
  %43 = getelementptr inbounds nuw [1 x i32], ptr %47, i64 0, i64 %indvars.iv72
  %44 = load i32, ptr %43, align 4, !tbaa !3
  %45 = xor i32 %44, %42
  %46 = getelementptr inbounds nuw [1 x i32], ptr %7, i64 0, i64 %indvars.iv72
  store i32 %45, ptr %46, align 4, !tbaa !3
  %indvars.iv.next73 = add nsw i64 %indvars.iv72, -1
  %.not89 = icmp eq i64 %indvars.iv72, 0
  br i1 %.not89, label %.lr.ph.us.us.preheader, label %40, !llvm.loop !41

.preheader.us.us:                                 ; preds = %16
  %47 = getelementptr inbounds nuw i8, ptr %.04456.us.us, i64 16
  %48 = and i32 %17, 16777215
  %49 = zext nneg i32 %48 to i64
  br label %40

._crit_edge.us.us:                                ; preds = %.lr.ph.us.us
  %50 = trunc i32 %37 to i8
  %indvars.iv.next76 = add nsw i64 %indvars.iv75, 1
  %51 = getelementptr inbounds i8, ptr %1, i64 %indvars.iv75
  store i8 %50, ptr %51, align 1, !tbaa !35
  %.044.us.us = load ptr, ptr %.04456.us.us, align 8, !tbaa !30
  %.not47.us.us = icmp eq ptr %.044.us.us, null
  br i1 %.not47.us.us, label %.loopexit49.us, label %16, !llvm.loop !42

.loopexit49:                                      ; preds = %.loopexit
  %.043.pre = load ptr, ptr %.04362, align 8, !tbaa !7
  %.not = icmp eq ptr %.043.pre, null
  br i1 %.not, label %._crit_edge, label %.preheader48, !llvm.loop !39

.preheader48:                                     ; preds = %.preheader48.lr.ph, %.loopexit49
  %.04362 = phi ptr [ %.043.pre, %.loopexit49 ], [ %.04359, %.preheader48.lr.ph ]
  %.04161 = phi i64 [ %indvars.iv.next70, %.loopexit49 ], [ 0, %.preheader48.lr.ph ]
  %.04453 = load ptr, ptr %.04362, align 8, !tbaa !30
  %.not4754 = icmp eq ptr %.04453, null
  br i1 %.not4754, label %._crit_edge, label %.lr.ph57

.lr.ph57:                                         ; preds = %.preheader48
  %52 = getelementptr inbounds nuw i8, ptr %.04362, i64 8
  %53 = getelementptr inbounds nuw i8, ptr %.04362, i64 16
  %54 = getelementptr inbounds nuw i8, ptr %.04362, i64 20
  %sext = shl i64 %.04161, 32
  %55 = ashr exact i64 %sext, 32
  br label %56

56:                                               ; preds = %.lr.ph57, %.loopexit
  %indvars.iv69 = phi i64 [ %55, %.lr.ph57 ], [ %indvars.iv.next70, %.loopexit ]
  %.04456 = phi ptr [ %.04453, %.lr.ph57 ], [ %.044, %.loopexit ]
  %57 = load i32, ptr %52, align 8
  %58 = and i32 %57, 16777215
  switch i32 %58, label %.preheader [
    i32 0, label %62
    i32 1, label %67
  ]

.preheader:                                       ; preds = %56
  %59 = getelementptr inbounds nuw i8, ptr %.04456, i64 16
  %60 = and i32 %57, 16777215
  %61 = zext nneg i32 %60 to i64
  br label %76

62:                                               ; preds = %56
  %63 = load i32, ptr %53, align 8, !tbaa !3
  %64 = getelementptr inbounds nuw i8, ptr %.04456, i64 16
  %65 = load i32, ptr %64, align 8, !tbaa !3
  %66 = xor i32 %65, %63
  store i32 %66, ptr %7, align 8, !tbaa !3
  br label %.loopexit

67:                                               ; preds = %56
  %68 = load i32, ptr %53, align 8, !tbaa !3
  %69 = getelementptr inbounds nuw i8, ptr %.04456, i64 16
  %70 = load i32, ptr %69, align 8, !tbaa !3
  %71 = xor i32 %70, %68
  store i32 %71, ptr %7, align 8, !tbaa !3
  %72 = load i32, ptr %54, align 4, !tbaa !3
  %73 = getelementptr inbounds nuw i8, ptr %.04456, i64 20
  %74 = load i32, ptr %73, align 4, !tbaa !3
  %75 = xor i32 %74, %72
  store i32 %75, ptr %8, align 4, !tbaa !3
  br label %.loopexit

76:                                               ; preds = %.preheader, %76
  %indvars.iv = phi i64 [ %61, %.preheader ], [ %indvars.iv.next, %76 ]
  %77 = getelementptr inbounds nuw [1 x i32], ptr %53, i64 0, i64 %indvars.iv
  %78 = load i32, ptr %77, align 4, !tbaa !3
  %79 = getelementptr inbounds nuw [1 x i32], ptr %59, i64 0, i64 %indvars.iv
  %80 = load i32, ptr %79, align 4, !tbaa !3
  %81 = xor i32 %80, %78
  %82 = getelementptr inbounds nuw [1 x i32], ptr %7, i64 0, i64 %indvars.iv
  store i32 %81, ptr %82, align 4, !tbaa !3
  %indvars.iv.next = add nsw i64 %indvars.iv, -1
  %.not87 = icmp eq i64 %indvars.iv, 0
  br i1 %.not87, label %.loopexit, label %76, !llvm.loop !41

.loopexit:                                        ; preds = %76, %67, %62
  %indvars.iv.next70 = add nsw i64 %indvars.iv69, 1
  %83 = getelementptr inbounds i8, ptr %1, i64 %indvars.iv69
  store i8 0, ptr %83, align 1, !tbaa !35
  %.044 = load ptr, ptr %.04456, align 8, !tbaa !30
  %.not47 = icmp eq ptr %.044, null
  br i1 %.not47, label %.loopexit49, label %56, !llvm.loop !42

._crit_edge:                                      ; preds = %.loopexit49, %.preheader48, %.preheader48.us, %.loopexit49.us, %2
  tail call void @Mvc_CubeFree(ptr noundef nonnull %0, ptr noundef %3) #6
  ret i32 1
}